target datalayout = "e-m:e-p270:32:32-p271:32:32-p272:64:64-i64:64-i128:128-f80:128-n8:16:32:64-S128"
target triple = "x86_64-unknown-linux-gnu"

%struct.VFIODevice = type { %struct.anon, %struct.anon.0, %struct.anon.1, ptr, ptr, ptr, ptr, ptr, i32, i32, i8, i8, i8, i8, i32, ptr, i32, i32, i32, ptr, ptr, i32, i8, i8 }
%struct.anon = type { ptr, ptr }
%struct.anon.0 = type { ptr, ptr }
%struct.anon.1 = type { ptr, ptr }
%struct.VFIOMigration = type { ptr, ptr, %struct.Notifier, i32, i32, ptr, i64, i64, i64, i64, i8 }
%struct.Notifier = type { ptr, %struct.anon.2 }
%struct.anon.2 = type { ptr, ptr }
%struct.timeval = type { i64, i64 }

@trace_events_enabled_count = external global i32, align 4
@message_with_timestamp = external global i8, align 1
@qemu_loglevel = external global i32, align 4
@_TRACE_VFIO_STATE_PENDING_ESTIMATE_DSTATE = external global i16, align 2
@.str.44 = private unnamed_addr constant [129 x i8] c"%d@%zu.%06zu:vfio_state_pending_estimate  (%s) precopy 0x%lx postcopy 0x%lx precopy initial size 0x%lx precopy dirty size 0x%lx\0A\00", align 1
@.str.45 = private unnamed_addr constant [116 x i8] c"vfio_state_pending_estimate  (%s) precopy 0x%lx postcopy 0x%lx precopy initial size 0x%lx precopy dirty size 0x%lx\0A\00", align 1

; Function Attrs: nounwind sspstrong uwtable
define internal zeroext i1 @qemu_loglevel_mask(i32 noundef %mask) #0 {
entry:
  %mask.addr = alloca i32, align 4
  store i32 %mask, ptr %mask.addr, align 4
  %0 = load i32, ptr @qemu_loglevel, align 4
  %1 = load i32, ptr %mask.addr, align 4
  %and = and i32 %0, %1
  %cmp = icmp ne i32 %and, 0
  ret i1 %cmp
}

; Function Attrs: nounwind sspstrong uwtable
define internal void @_nocheck__trace_vfio_state_pending_estimate(ptr noundef %name, i64 noundef %precopy, i64 noundef %postcopy, i64 noundef %precopy_init_size, i64 noundef %precopy_dirty_size) #0 {
entry:
  %name.addr = alloca ptr, align 8
  %precopy.addr = alloca i64, align 8
  %postcopy.addr = alloca i64, align 8
  %precopy_init_size.addr = alloca i64, align 8
  %precopy_dirty_size.addr = alloca i64, align 8
  %_now = alloca %struct.timeval, align 8
  store ptr %name, ptr %name.addr, align 8
  store i64 %precopy, ptr %precopy.addr, align 8
  store i64 %postcopy, ptr %postcopy.addr, align 8
  store i64 %precopy_init_size, ptr %precopy_init_size.addr, align 8
  store i64 %precopy_dirty_size, ptr %precopy_dirty_size.addr, align 8
  %0 = load i32, ptr @trace_events_enabled_count, align 4
  %tobool = icmp ne i32 %0, 0
  %lnot = xor i1 %tobool, true
  %lnot1 = xor i1 %lnot, true
  %lnot.ext = zext i1 %lnot1 to i32
  %conv = sext i32 %lnot.ext to i64
  %tobool2 = icmp ne i64 %conv, 0
  br i1 %tobool2, label %land.lhs.true, label %if.end11

land.lhs.true:                                    ; preds = %entry
  %1 = load i16, ptr @_TRACE_VFIO_STATE_PENDING_ESTIMATE_DSTATE, align 2
  %conv3 = zext i16 %1 to i32
  %tobool4 = icmp ne i32 %conv3, 0
  br i1 %tobool4, label %land.lhs.true5, label %if.end11

land.lhs.true5:                                   ; preds = %land.lhs.true
  %call = call zeroext i1 @qemu_loglevel_mask(i32 noundef 32768)
  br i1 %call, label %if.then, label %if.end11

if.then:                                          ; preds = %land.lhs.true5
  %2 = load i8, ptr @message_with_timestamp, align 1
  %tobool7 = trunc i8 %2 to i1
  br i1 %tobool7, label %if.then8, label %if.else

if.then8:                                         ; preds = %if.then
  %call9 = call i32 @gettimeofday(ptr noundef %_now, ptr noundef null) #9
  %call10 = call i32 @qemu_get_thread_id()
  %tv_sec = getelementptr inbounds %struct.timeval, ptr %_now, i32 0, i32 0
  %3 = load i64, ptr %tv_sec, align 8
  %tv_usec = getelementptr inbounds %struct.timeval, ptr %_now, i32 0, i32 1
  %4 = load i64, ptr %tv_usec, align 8
  %5 = load ptr, ptr %name.addr, align 8
  %6 = load i64, ptr %precopy.addr, align 8
  %7 = load i64, ptr %postcopy.addr, align 8
  %8 = load i64, ptr %precopy_init_size.addr, align 8
  %9 = load i64, ptr %precopy_dirty_size.addr, align 8
  call void (ptr, ...) @qemu_log(ptr noundef @.str.44, i32 noundef %call10, i64 noundef %3, i64 noundef %4, ptr noundef %5, i64 noundef %6, i64 noundef %7, i64 noundef %8, i64 noundef %9)
  br label %if.end

if.else:                                          ; preds = %if.then
  %10 = load ptr, ptr %name.addr, align 8
  %11 = load i64, ptr %precopy.addr, align 8
  %12 = load i64, ptr %postcopy.addr, align 8
  %13 = load i64, ptr %precopy_init_size.addr, align 8
  %14 = load i64, ptr %precopy_dirty_size.addr, align 8
  call void (ptr, ...) @qemu_log(ptr noundef @.str.45, ptr noundef %10, i64 noundef %11, i64 noundef %12, i64 noundef %13, i64 noundef %14)
  br label %if.end

if.end:                                           ; preds = %if.else, %if.then8
  br label %if.end11

if.end11:                                         ; preds = %if.end, %land.lhs.true5, %land.lhs.true, %entry
  ret void
}

; Function Attrs: nounwind sspstrong uwtable
define internal void @trace_vfio_state_pending_estimate(ptr noundef %name, i64 noundef %precopy, i64 noundef %postcopy, i64 noundef %precopy_init_size, i64 noundef %precopy_dirty_size) #0 {
entry:
  %name.addr = alloca ptr, align 8
  %precopy.addr = alloca i64, align 8
  %postcopy.addr = alloca i64, align 8
  %precopy_init_size.addr = alloca i64, align 8
  %precopy_dirty_size.addr = alloca i64, align 8
  store ptr %name, ptr %name.addr, align 8
  store i64 %precopy, ptr %precopy.addr, align 8
  store i64 %postcopy, ptr %postcopy.addr, align 8
  store i64 %precopy_init_size, ptr %precopy_init_size.addr, align 8
  store i64 %precopy_dirty_size, ptr %precopy_dirty_size.addr, align 8
  %0 = load ptr, ptr %name.addr, align 8
  %1 = load i64, ptr %precopy.addr, align 8
  %2 = load i64, ptr %postcopy.addr, align 8
  %3 = load i64, ptr %precopy_init_size.addr, align 8
  %4 = load i64, ptr %precopy_dirty_size.addr, align 8
  call void @_nocheck__trace_vfio_state_pending_estimate(ptr noundef %0, i64 noundef %1, i64 noundef %2, i64 noundef %3, i64 noundef %4)
  ret void
}

; Function Attrs: nounwind sspstrong uwtable
define internal void @vfio_state_pending_estimate(ptr noundef %opaque, ptr noundef %must_precopy, ptr noundef %can_postcopy) #0 {
entry:
  %opaque.addr = alloca ptr, align 8
  %must_precopy.addr = alloca ptr, align 8
  %can_postcopy.addr = alloca ptr, align 8
  %vbasedev = alloca ptr, align 8
  %migration = alloca ptr, align 8
  store ptr %opaque, ptr %opaque.addr, align 8
  store ptr %must_precopy, ptr %must_precopy.addr, align 8
  store ptr %can_postcopy, ptr %can_postcopy.addr, align 8
  %0 = load ptr, ptr %opaque.addr, align 8
  store ptr %0, ptr %vbasedev, align 8
  %1 = load ptr, ptr %vbasedev, align 8
  %migration1 = getelementptr inbounds %struct.VFIODevice, ptr %1, i32 0, i32 19
  %2 = load ptr, ptr %migration1, align 8
  store ptr %2, ptr %migration, align 8
  %3 = load ptr, ptr %vbasedev, align 8
  %call = call zeroext i1 @vfio_device_state_is_precopy(ptr noundef %3)
  br i1 %call, label %if.end, label %if.then

if.then:                                          ; preds = %entry
  br label %return

if.end:                                           ; preds = %entry
  %4 = load ptr, ptr %migration, align 8
  %precopy_init_size = getelementptr inbounds %struct.VFIOMigration, ptr %4, i32 0, i32 8
  %5 = load i64, ptr %precopy_init_size, align 8
  %6 = load ptr, ptr %migration, align 8
  %precopy_dirty_size = getelementptr inbounds %struct.VFIOMigration, ptr %6, i32 0, i32 9
  %7 = load i64, ptr %precopy_dirty_size, align 8
  %add = add i64 %5, %7
  %8 = load ptr, ptr %must_precopy.addr, align 8
  %9 = load i64, ptr %8, align 8
  %add2 = add i64 %9, %add
  store i64 %add2, ptr %8, align 8
  %10 = load ptr, ptr %vbasedev, align 8
  %name = getelementptr inbounds %struct.VFIODevice, ptr %10, i32 0, i32 6
  %11 = load ptr, ptr %name, align 8
  %12 = load ptr, ptr %must_precopy.addr, align 8
  %13 = load i64, ptr %12, align 8
  %14 = load ptr, ptr %can_postcopy.addr, align 8
  %15 = load i64, ptr %14, align 8
  %16 = load ptr, ptr %migration, align 8
  %precopy_init_size3 = getelementptr inbounds %struct.VFIOMigration, ptr %16, i32 0, i32 8
  %17 = load i64, ptr %precopy_init_size3, align 8
  %18 = load ptr, ptr %migration, align 8
  %precopy_dirty_size4 = getelementptr inbounds %struct.VFIOMigration, ptr %18, i32 0, i32 9
  %19 = load i64, ptr %precopy_dirty_size4, align 8
  call void @trace_vfio_state_pending_estimate(ptr noundef %11, i64 noundef %13, i64 noundef %15, i64 noundef %17, i64 noundef %19)
  br label %return

return:                                           ; preds = %if.end, %if.then
  ret void
}