; Function Attrs: nounwind sspstrong uwtable
define internal void @vfio_state_pending_estimate(ptr noundef %opaque, ptr noundef captures(none) %must_precopy, ptr noundef readonly captures(none) %can_postcopy) #2 {
entry:
  %_now.i.i = alloca %struct.timeval, align 8
  %migration1 = getelementptr inbounds nuw i8, ptr %opaque, i64 128
  %0 = load ptr, ptr %migration1, align 8
  %call = tail call zeroext i1 @vfio_device_state_is_precopy(ptr noundef %opaque) #16
  br i1 %call, label %if.end, label %return

if.end:                                           ; preds = %entry
  %precopy_init_size = getelementptr inbounds nuw i8, ptr %0, i64 72
  %1 = load i64, ptr %precopy_init_size, align 8
  %precopy_dirty_size = getelementptr inbounds nuw i8, ptr %0, i64 80
  %2 = load i64, ptr %precopy_dirty_size, align 8
  %add = add i64 %2, %1
  %3 = load i64, ptr %must_precopy, align 8
  %add2 = add i64 %add, %3
  store i64 %add2, ptr %must_precopy, align 8
  %name = getelementptr inbounds nuw i8, ptr %opaque, i64 72
  %4 = load ptr, ptr %name, align 8
  %5 = load i64, ptr %can_postcopy, align 8
  %6 = load i64, ptr %precopy_init_size, align 8
  %7 = load i64, ptr %precopy_dirty_size, align 8
  call void @llvm.lifetime.start.p0(i64 16, ptr nonnull %_now.i.i)
  %8 = load i32, ptr @trace_events_enabled_count, align 4
  %tobool.i.i = icmp ne i32 %8, 0
  %9 = load i16, ptr @_TRACE_VFIO_STATE_PENDING_ESTIMATE_DSTATE, align 2
  %tobool4.i.i = icmp ne i16 %9, 0
  %or.cond.i.i = select i1 %tobool.i.i, i1 %tobool4.i.i, i1 false
  br i1 %or.cond.i.i, label %land.lhs.true5.i.i, label %trace_vfio_state_pending_estimate.exit

land.lhs.true5.i.i:                               ; preds = %if.end
  %10 = load i32, ptr @qemu_loglevel, align 4
  %and.i.i.i = and i32 %10, 32768
  %cmp.i.not.i.i = icmp eq i32 %and.i.i.i, 0
  br i1 %cmp.i.not.i.i, label %trace_vfio_state_pending_estimate.exit, label %if.then.i.i

if.then.i.i:                                      ; preds = %land.lhs.true5.i.i
  %11 = load i8, ptr @message_with_timestamp, align 1
  %tobool7.i.i = trunc i8 %11 to i1
  br i1 %tobool7.i.i, label %if.then8.i.i, label %if.else.i.i

if.then8.i.i:                                     ; preds = %if.then.i.i
  %call9.i.i = call i32 @gettimeofday(ptr noundef nonnull %_now.i.i, ptr noundef null) #16
  %call10.i.i = tail call i32 @qemu_get_thread_id() #16
  %12 = load i64, ptr %_now.i.i, align 8
  %tv_usec.i.i = getelementptr inbounds nuw i8, ptr %_now.i.i, i64 8
  %13 = load i64, ptr %tv_usec.i.i, align 8
  tail call void (ptr, ...) @qemu_log(ptr noundef nonnull @.str.44, i32 noundef %call10.i.i, i64 noundef %12, i64 noundef %13, ptr noundef %4, i64 noundef %add2, i64 noundef %5, i64 noundef %6, i64 noundef %7) #16
  br label %trace_vfio_state_pending_estimate.exit

if.else.i.i:                                      ; preds = %if.then.i.i
  tail call void (ptr, ...) @qemu_log(ptr noundef nonnull @.str.45, ptr noundef %4, i64 noundef %add2, i64 noundef %5, i64 noundef %6, i64 noundef %7) #16
  br label %trace_vfio_state_pending_estimate.exit

trace_vfio_state_pending_estimate.exit:           ; preds = %if.end, %land.lhs.true5.i.i, %if.then8.i.i, %if.else.i.i
  call void @llvm.lifetime.end.p0(i64 16, ptr nonnull %_now.i.i)
  br label %return

return:                                           ; preds = %entry, %trace_vfio_state_pending_estimate.exit
  ret void
}